; Function Attrs: nofree norecurse nosync nounwind memory(read, argmem: readwrite, inaccessiblemem: none) uwtable
define void @ZSTD_ldm_skipRawSeqStoreBytes(ptr noundef captures(none) %0, i64 noundef %1) local_unnamed_addr #8 {
  %3 = getelementptr inbounds nuw i8, ptr %0, i64 16
  %4 = load i64, ptr %3, align 8, !tbaa !69
  %5 = add i64 %4, %1
  %6 = trunc i64 %5 to i32
  %.not28 = icmp eq i32 %6, 0
  br i1 %.not28, label %.critedge, label %.lr.ph

.lr.ph:                                           ; preds = %2
  %7 = getelementptr inbounds nuw i8, ptr %0, i64 8
  %8 = getelementptr inbounds nuw i8, ptr %0, i64 24
  %9 = load i64, ptr %8, align 8, !tbaa !36
  %.promoted = load i64, ptr %7, align 8, !tbaa !68
  br label %10

10:                                               ; preds = %.lr.ph, %18
  %11 = phi i64 [ %.promoted, %.lr.ph ], [ %20, %18 ]
  %.01829 = phi i32 [ %6, %.lr.ph ], [ %19, %18 ]
  %12 = icmp ult i64 %11, %9
  br i1 %12, label %13, label %.loopexit

13:                                               ; preds = %10
  %14 = load ptr, ptr %0, align 8, !tbaa !60
  %15 = getelementptr inbounds nuw %struct.rawSeq, ptr %14, i64 %11
  %.sroa.3.0..sroa_idx = getelementptr inbounds nuw i8, ptr %15, i64 4
  %.sroa.3.0.copyload = load i32, ptr %.sroa.3.0..sroa_idx, align 4, !tbaa !25
  %.sroa.5.0..sroa_idx = getelementptr inbounds nuw i8, ptr %15, i64 8
  %.sroa.5.0.copyload = load i32, ptr %.sroa.5.0..sroa_idx, align 4, !tbaa !25
  %16 = add i32 %.sroa.5.0.copyload, %.sroa.3.0.copyload
  %.not21 = icmp ult i32 %.01829, %16
  br i1 %.not21, label %.thread, label %18

.thread:                                          ; preds = %13
  %17 = zext i32 %.01829 to i64
  store i64 %17, ptr %3, align 8, !tbaa !69
  br label %.loopexit

18:                                               ; preds = %13
  %19 = sub nuw i32 %.01829, %16
  %20 = add nuw i64 %11, 1
  store i64 %20, ptr %7, align 8, !tbaa !68
  %.not = icmp eq i32 %19, 0
  br i1 %.not, label %.critedge, label %10

.loopexit:                                        ; preds = %10, %.thread
  %21 = icmp eq i64 %11, %9
  br i1 %21, label %.critedge, label %22

.critedge:                                        ; preds = %18, %2, %.loopexit
  store i64 0, ptr %3, align 8, !tbaa !69
  br label %22

22:                                               ; preds = %.critedge, %.loopexit
  ret void
}